target datalayout = "e-m:e-p270:32:32-p271:32:32-p272:64:64-i64:64-i128:128-f80:128-n8:16:32:64-S128"
target triple = "x86_64-pc-linux-gnu"

%struct.ReorderBuffer = type { ptr, %struct.dlist_head, %struct.dlist_head, %struct.dclist_head, i32, ptr, ptr, ptr, ptr, ptr, ptr, ptr, ptr, ptr, ptr, ptr, ptr, ptr, ptr, ptr, ptr, ptr, ptr, ptr, ptr, i8, ptr, ptr, ptr, ptr, i64, ptr, i64, i64, ptr, i64, i64, i64, i64, i64, i64, i64, i64 }
%struct.dlist_head = type { %struct.dlist_node }
%struct.dlist_node = type { ptr, ptr }
%struct.dclist_head = type { %struct.dlist_head, i32 }
%struct.ReorderBufferTXN = type { i32, i32, i32, ptr, i64, i64, i64, ptr, i64, i16, i64, %union.anon.4, ptr, i64, %struct.dlist_node, ptr, i32, i64, i64, %struct.dlist_head, %struct.dlist_head, i64, ptr, ptr, %struct.dlist_head, i32, i32, ptr, %struct.dlist_node, %struct.dlist_node, %struct.pairingheap_node, i64, i64, ptr }
%union.anon.4 = type { i64 }
%struct.pairingheap_node = type { ptr, ptr, ptr }
%struct.ReorderBufferChange = type { i64, i32, ptr, i16, %union.anon, %struct.dlist_node }
%union.anon = type { %struct.anon }
%struct.anon = type { %struct.RelFileLocator, i8, ptr, ptr }
%struct.RelFileLocator = type { i32, i32, i32 }
%struct.anon.3 = type { i32, ptr }
%union.SharedInvalidationMessage = type { %struct.SharedInvalSmgrMsg }
%struct.SharedInvalSmgrMsg = type { i8, i8, i16, %struct.RelFileLocator }

@CurrentMemoryContext = external global ptr, align 8

; Function Attrs: nounwind uwtable
define dso_local ptr @ReorderBufferGetChange(ptr noundef %0) #0 {
  %2 = alloca ptr, align 8
  %3 = alloca ptr, align 8
  store ptr %0, ptr %2, align 8
  call void @llvm.lifetime.start.p0(i64 8, ptr %3) #13
  %4 = load ptr, ptr %2, align 8
  %5 = getelementptr inbounds nuw %struct.ReorderBuffer, ptr %4, i32 0, i32 27
  %6 = load ptr, ptr %5, align 8
  %7 = call ptr @MemoryContextAlloc(ptr noundef %6, i64 noundef 80)
  store ptr %7, ptr %3, align 8
  %8 = load ptr, ptr %3, align 8
  call void @llvm.memset.p0.i64(ptr align 8 %8, i8 0, i64 80, i1 false)
  %9 = load ptr, ptr %3, align 8
  call void @llvm.lifetime.end.p0(i64 8, ptr %3) #13
  ret ptr %9
}

; Function Attrs: inlinehint nounwind uwtable
define internal ptr @MemoryContextSwitchTo(ptr noundef %0) #4 {
  %2 = alloca ptr, align 8
  %3 = alloca ptr, align 8
  store ptr %0, ptr %2, align 8
  call void @llvm.lifetime.start.p0(i64 8, ptr %3) #13
  %4 = load ptr, ptr @CurrentMemoryContext, align 8
  store ptr %4, ptr %3, align 8
  %5 = load ptr, ptr %2, align 8
  store ptr %5, ptr @CurrentMemoryContext, align 8
  %6 = load ptr, ptr %3, align 8
  call void @llvm.lifetime.end.p0(i64 8, ptr %3) #13
  ret ptr %6
}

; Function Attrs: nounwind uwtable
define dso_local void @ReorderBufferAddInvalidations(ptr noundef %0, i32 noundef %1, i64 noundef %2, i64 noundef %3, ptr noundef %4) #0 {
  %6 = alloca ptr, align 8
  %7 = alloca i32, align 4
  %8 = alloca i64, align 8
  %9 = alloca i64, align 8
  %10 = alloca ptr, align 8
  %11 = alloca ptr, align 8
  %12 = alloca ptr, align 8
  %13 = alloca ptr, align 8
  store ptr %0, ptr %6, align 8
  store i32 %1, ptr %7, align 4
  store i64 %2, ptr %8, align 8
  store i64 %3, ptr %9, align 8
  store ptr %4, ptr %10, align 8
  call void @llvm.lifetime.start.p0(i64 8, ptr %11) #13
  call void @llvm.lifetime.start.p0(i64 8, ptr %12) #13
  call void @llvm.lifetime.start.p0(i64 8, ptr %13) #13
  %14 = load ptr, ptr %6, align 8
  %15 = load i32, ptr %7, align 4
  %16 = load i64, ptr %8, align 8
  %17 = call ptr @ReorderBufferTXNByXid(ptr noundef %14, i32 noundef %15, i1 noundef zeroext true, ptr noundef null, i64 noundef %16, i1 noundef zeroext true)
  store ptr %17, ptr %11, align 8
  %18 = load ptr, ptr %6, align 8
  %19 = getelementptr inbounds nuw %struct.ReorderBuffer, ptr %18, i32 0, i32 26
  %20 = load ptr, ptr %19, align 8
  %21 = call ptr @MemoryContextSwitchTo(ptr noundef %20)
  store ptr %21, ptr %12, align 8
  %22 = load ptr, ptr %11, align 8
  %23 = getelementptr inbounds nuw %struct.ReorderBufferTXN, ptr %22, i32 0, i32 7
  %24 = load ptr, ptr %23, align 8
  %25 = icmp ne ptr %24, null
  br i1 %25, label %26, label %30

26:                                               ; preds = %5
  %27 = load ptr, ptr %11, align 8
  %28 = getelementptr inbounds nuw %struct.ReorderBufferTXN, ptr %27, i32 0, i32 7
  %29 = load ptr, ptr %28, align 8
  br label %32

30:                                               ; preds = %5
  %31 = load ptr, ptr %11, align 8
  br label %32

32:                                               ; preds = %30, %26
  %33 = phi ptr [ %29, %26 ], [ %31, %30 ]
  store ptr %33, ptr %11, align 8
  %34 = load ptr, ptr %11, align 8
  %35 = getelementptr inbounds nuw %struct.ReorderBufferTXN, ptr %34, i32 0, i32 26
  %36 = load i32, ptr %35, align 4
  %37 = icmp eq i32 %36, 0
  br i1 %37, label %38, label %54

38:                                               ; preds = %32
  %39 = load i64, ptr %9, align 8
  %40 = trunc i64 %39 to i32
  %41 = load ptr, ptr %11, align 8
  %42 = getelementptr inbounds nuw %struct.ReorderBufferTXN, ptr %41, i32 0, i32 26
  store i32 %40, ptr %42, align 4
  %43 = load i64, ptr %9, align 8
  %44 = mul i64 16, %43
  %45 = call ptr @palloc(i64 noundef %44)
  %46 = load ptr, ptr %11, align 8
  %47 = getelementptr inbounds nuw %struct.ReorderBufferTXN, ptr %46, i32 0, i32 27
  store ptr %45, ptr %47, align 8
  %48 = load ptr, ptr %11, align 8
  %49 = getelementptr inbounds nuw %struct.ReorderBufferTXN, ptr %48, i32 0, i32 27
  %50 = load ptr, ptr %49, align 8
  %51 = load ptr, ptr %10, align 8
  %52 = load i64, ptr %9, align 8
  %53 = mul i64 16, %52
  call void @llvm.memcpy.p0.p0.i64(ptr align 4 %50, ptr align 4 %51, i64 %53, i1 false)
  br label %86

54:                                               ; preds = %32
  %55 = load ptr, ptr %11, align 8
  %56 = getelementptr inbounds nuw %struct.ReorderBufferTXN, ptr %55, i32 0, i32 27
  %57 = load ptr, ptr %56, align 8
  %58 = load ptr, ptr %11, align 8
  %59 = getelementptr inbounds nuw %struct.ReorderBufferTXN, ptr %58, i32 0, i32 26
  %60 = load i32, ptr %59, align 4
  %61 = zext i32 %60 to i64
  %62 = load i64, ptr %9, align 8
  %63 = add i64 %61, %62
  %64 = mul i64 16, %63
  %65 = call ptr @repalloc(ptr noundef %57, i64 noundef %64)
  %66 = load ptr, ptr %11, align 8
  %67 = getelementptr inbounds nuw %struct.ReorderBufferTXN, ptr %66, i32 0, i32 27
  store ptr %65, ptr %67, align 8
  %68 = load ptr, ptr %11, align 8
  %69 = getelementptr inbounds nuw %struct.ReorderBufferTXN, ptr %68, i32 0, i32 27
  %70 = load ptr, ptr %69, align 8
  %71 = load ptr, ptr %11, align 8
  %72 = getelementptr inbounds nuw %struct.ReorderBufferTXN, ptr %71, i32 0, i32 26
  %73 = load i32, ptr %72, align 4
  %74 = zext i32 %73 to i64
  %75 = getelementptr inbounds nuw %union.SharedInvalidationMessage, ptr %70, i64 %74
  %76 = load ptr, ptr %10, align 8
  %77 = load i64, ptr %9, align 8
  %78 = mul i64 %77, 16
  call void @llvm.memcpy.p0.p0.i64(ptr align 4 %75, ptr align 4 %76, i64 %78, i1 false)
  %79 = load i64, ptr %9, align 8
  %80 = load ptr, ptr %11, align 8
  %81 = getelementptr inbounds nuw %struct.ReorderBufferTXN, ptr %80, i32 0, i32 26
  %82 = load i32, ptr %81, align 4
  %83 = zext i32 %82 to i64
  %84 = add i64 %83, %79
  %85 = trunc i64 %84 to i32
  store i32 %85, ptr %81, align 4
  br label %86

86:                                               ; preds = %54, %38
  %87 = load ptr, ptr %6, align 8
  %88 = call ptr @ReorderBufferGetChange(ptr noundef %87)
  store ptr %88, ptr %13, align 8
  %89 = load ptr, ptr %13, align 8
  %90 = getelementptr inbounds nuw %struct.ReorderBufferChange, ptr %89, i32 0, i32 1
  store i32 4, ptr %90, align 8
  %91 = load i64, ptr %9, align 8
  %92 = trunc i64 %91 to i32
  %93 = load ptr, ptr %13, align 8
  %94 = getelementptr inbounds nuw %struct.ReorderBufferChange, ptr %93, i32 0, i32 4
  %95 = getelementptr inbounds nuw %struct.anon.3, ptr %94, i32 0, i32 0
  store i32 %92, ptr %95, align 8
  %96 = load i64, ptr %9, align 8
  %97 = mul i64 16, %96
  %98 = call ptr @palloc(i64 noundef %97)
  %99 = load ptr, ptr %13, align 8
  %100 = getelementptr inbounds nuw %struct.ReorderBufferChange, ptr %99, i32 0, i32 4
  %101 = getelementptr inbounds nuw %struct.anon.3, ptr %100, i32 0, i32 1
  store ptr %98, ptr %101, align 8
  %102 = load ptr, ptr %13, align 8
  %103 = getelementptr inbounds nuw %struct.ReorderBufferChange, ptr %102, i32 0, i32 4
  %104 = getelementptr inbounds nuw %struct.anon.3, ptr %103, i32 0, i32 1
  %105 = load ptr, ptr %104, align 8
  %106 = load ptr, ptr %10, align 8
  %107 = load i64, ptr %9, align 8
  %108 = mul i64 16, %107
  call void @llvm.memcpy.p0.p0.i64(ptr align 4 %105, ptr align 4 %106, i64 %108, i1 false)
  %109 = load ptr, ptr %6, align 8
  %110 = load i32, ptr %7, align 4
  %111 = load i64, ptr %8, align 8
  %112 = load ptr, ptr %13, align 8
  call void @ReorderBufferQueueChange(ptr noundef %109, i32 noundef %110, i64 noundef %111, ptr noundef %112, i1 noundef zeroext false)
  %113 = load ptr, ptr %12, align 8
  %114 = call ptr @MemoryContextSwitchTo(ptr noundef %113)
  call void @llvm.lifetime.end.p0(i64 8, ptr %13) #13
  call void @llvm.lifetime.end.p0(i64 8, ptr %12) #13
  call void @llvm.lifetime.end.p0(i64 8, ptr %11) #13
  ret void
}