; Function Attrs: nounwind uwtable
define dso_local void @ReorderBufferAddInvalidations(ptr noundef %0, i32 noundef %1, i64 noundef %2, i64 noundef %3, ptr noundef readonly captures(none) %4) local_unnamed_addr #0 {
  %6 = tail call fastcc ptr @ReorderBufferTXNByXid(ptr noundef %0, i32 noundef %1, i1 noundef zeroext true, ptr noundef null, i64 noundef %2, i1 noundef zeroext true)
  %7 = getelementptr inbounds nuw i8, ptr %0, i64 240
  %8 = load ptr, ptr %7, align 8
  %9 = load ptr, ptr @CurrentMemoryContext, align 8
  store ptr %8, ptr @CurrentMemoryContext, align 8
  %10 = getelementptr inbounds nuw i8, ptr %6, i64 48
  %11 = load ptr, ptr %10, align 8
  %.not = icmp eq ptr %11, null
  %. = select i1 %.not, ptr %6, ptr %11
  %12 = getelementptr inbounds nuw i8, ptr %., i64 228
  %13 = load i32, ptr %12, align 4
  %14 = icmp eq i32 %13, 0
  br i1 %14, label %15, label %20

15:                                               ; preds = %5
  %16 = trunc i64 %3 to i32
  store i32 %16, ptr %12, align 4
  %17 = shl i64 %3, 4
  %18 = tail call ptr @palloc(i64 noundef %17) #19
  %19 = getelementptr inbounds nuw i8, ptr %., i64 232
  store ptr %18, ptr %19, align 8
  tail call void @llvm.memcpy.p0.p0.i64(ptr align 4 %18, ptr align 4 %4, i64 %17, i1 false)
  br label %34

20:                                               ; preds = %5
  %21 = getelementptr inbounds nuw i8, ptr %., i64 232
  %22 = load ptr, ptr %21, align 8
  %23 = zext i32 %13 to i64
  %24 = add i64 %3, %23
  %25 = shl i64 %24, 4
  %26 = tail call ptr @repalloc(ptr noundef %22, i64 noundef %25) #19
  store ptr %26, ptr %21, align 8
  %27 = load i32, ptr %12, align 4
  %28 = zext i32 %27 to i64
  %29 = getelementptr inbounds nuw %union.SharedInvalidationMessage, ptr %26, i64 %28
  %30 = shl i64 %3, 4
  tail call void @llvm.memcpy.p0.p0.i64(ptr align 4 %29, ptr align 4 %4, i64 %30, i1 false)
  %31 = load i32, ptr %12, align 4
  %32 = trunc i64 %3 to i32
  %33 = add i32 %31, %32
  store i32 %33, ptr %12, align 4
  br label %34

34:                                               ; preds = %20, %15
  %.pre-phi39 = phi i64 [ %30, %20 ], [ %17, %15 ]
  %.pre-phi = phi i32 [ %32, %20 ], [ %16, %15 ]
  %35 = getelementptr inbounds nuw i8, ptr %0, i64 248
  %36 = load ptr, ptr %35, align 8
  %37 = tail call noundef ptr @MemoryContextAlloc(ptr noundef %36, i64 noundef 80) #19
  tail call void @llvm.memset.p0.i64(ptr noundef nonnull align 8 dereferenceable(80) %37, i8 0, i64 80, i1 false)
  %38 = getelementptr inbounds nuw i8, ptr %37, i64 8
  store i32 4, ptr %38, align 8
  %39 = getelementptr inbounds nuw i8, ptr %37, i64 32
  store i32 %.pre-phi, ptr %39, align 8
  %40 = tail call ptr @palloc(i64 noundef %.pre-phi39) #19
  %41 = getelementptr inbounds nuw i8, ptr %37, i64 40
  store ptr %40, ptr %41, align 8
  tail call void @llvm.memcpy.p0.p0.i64(ptr align 4 %40, ptr align 4 %4, i64 %.pre-phi39, i1 false)
  tail call void @ReorderBufferQueueChange(ptr noundef nonnull %0, i32 noundef %1, i64 noundef %2, ptr noundef nonnull %37, i1 noundef zeroext false)
  store ptr %9, ptr @CurrentMemoryContext, align 8
  ret void
}